; ModuleID = 'source-C-CXX/44/645.c'
source_filename = "source-C-CXX/44/645.c"
target datalayout = "e-m:e-p270:32:32-p271:32:32-p272:64:64-i64:64-f80:128-n8:16:32:64-S128"
target triple = "x86_64-pc-linux-gnu"

@.str = private unnamed_addr constant [3 x i8] c"%s\00", align 1
@.str.1 = private unnamed_addr constant [3 x i8] c"%d\00", align 1

; Function Attrs: nofree nounwind sspstrong uwtable
define dso_local void @main() local_unnamed_addr #0 {
  %1 = alloca [100 x i8], align 16
  %2 = alloca [100 x i8], align 16
  %3 = getelementptr inbounds [100 x i8], [100 x i8]* %1, i64 0, i64 0
  call void @llvm.lifetime.start.p0i8(i64 100, i8* nonnull %3) #4
  %4 = getelementptr inbounds [100 x i8], [100 x i8]* %2, i64 0, i64 0
  call void @llvm.lifetime.start.p0i8(i64 100, i8* nonnull %4) #4
  %5 = call i32 (i8*, ...) @__isoc99_scanf(i8* getelementptr inbounds ([3 x i8], [3 x i8]* @.str, i64 0, i64 0), i8* nonnull %3)
  %6 = call i32 (i8*, ...) @__isoc99_scanf(i8* getelementptr inbounds ([3 x i8], [3 x i8]* @.str, i64 0, i64 0), i8* nonnull %4)
  %7 = call i64 @strlen(i8* noundef nonnull %3) #5
  %8 = call i64 @strlen(i8* noundef nonnull %4) #5
  %9 = trunc i64 %8 to i32
  %10 = icmp sgt i32 %9, 0
  br i1 %10, label %11, label %47

11:                                               ; preds = %0
  %12 = trunc i64 %7 to i32
  %13 = icmp sgt i32 %12, 0
  br i1 %13, label %14, label %42

14:                                               ; preds = %11
  %15 = add i64 %7, 4294967295
  %16 = and i64 %15, 4294967295
  %17 = add nuw nsw i64 %16, 1
  %18 = and i64 %7, 4294967295
  br label %19

19:                                               ; preds = %14, %31
  %20 = phi i32 [ %34, %31 ], [ 0, %14 ]
  %21 = sext i32 %20 to i64
  %22 = add nsw i64 %17, %21
  br label %23

23:                                               ; preds = %19, %36
  %24 = phi i64 [ 0, %19 ], [ %37, %36 ]
  %25 = phi i64 [ %21, %19 ], [ %38, %36 ]
  %26 = getelementptr inbounds [100 x i8], [100 x i8]* %1, i64 0, i64 %24
  %27 = load i8, i8* %26, align 1, !tbaa !5
  %28 = getelementptr inbounds [100 x i8], [100 x i8]* %2, i64 0, i64 %25
  %29 = load i8, i8* %28, align 1, !tbaa !5
  %30 = icmp eq i8 %27, %29
  br i1 %30, label %36, label %31

31:                                               ; preds = %23, %40
  %32 = phi i64 [ %22, %40 ], [ %25, %23 ]
  %33 = trunc i64 %32 to i32
  %34 = add nsw i32 %33, 1
  %35 = icmp slt i32 %34, %9
  br i1 %35, label %19, label %47, !llvm.loop !8

36:                                               ; preds = %23
  %37 = add nuw nsw i64 %24, 1
  %38 = add nsw i64 %25, 1
  %39 = icmp eq i64 %37, %18
  br i1 %39, label %40, label %23, !llvm.loop !10

40:                                               ; preds = %36
  %41 = call i32 (i8*, ...) @printf(i8* nonnull dereferenceable(1) getelementptr inbounds ([3 x i8], [3 x i8]* @.str.1, i64 0, i64 0), i32 %20)
  br label %31

42:                                               ; preds = %11, %42
  %43 = phi i32 [ %45, %42 ], [ 0, %11 ]
  %44 = call i32 (i8*, ...) @printf(i8* nonnull dereferenceable(1) getelementptr inbounds ([3 x i8], [3 x i8]* @.str.1, i64 0, i64 0), i32 %43)
  %45 = add nuw nsw i32 %43, 1
  %46 = icmp eq i32 %45, %9
  br i1 %46, label %47, label %42, !llvm.loop !8

47:                                               ; preds = %42, %31, %0
  call void @llvm.lifetime.end.p0i8(i64 100, i8* nonnull %4) #4
  call void @llvm.lifetime.end.p0i8(i64 100, i8* nonnull %3) #4
  ret void
}

; Function Attrs: argmemonly mustprogress nofree nosync nounwind willreturn
declare void @llvm.lifetime.start.p0i8(i64 immarg, i8* nocapture) #1

; Function Attrs: nofree nounwind
declare noundef i32 @__isoc99_scanf(i8* nocapture noundef readonly, ...) local_unnamed_addr #2

; Function Attrs: argmemonly mustprogress nofree nounwind readonly willreturn
declare i64 @strlen(i8* nocapture) local_unnamed_addr #3

; Function Attrs: nofree nounwind
declare noundef i32 @printf(i8* nocapture noundef readonly, ...) local_unnamed_addr #2

; Function Attrs: argmemonly mustprogress nofree nosync nounwind willreturn
declare void @llvm.lifetime.end.p0i8(i64 immarg, i8* nocapture) #1


!llvm.module.flags = !{!0, !1, !2, !3}
!llvm.ident = !{!4}

!0 = !{i32 1, !"wchar_size", i32 4}
!1 = !{i32 7, !"PIC Level", i32 2}
!2 = !{i32 7, !"PIE Level", i32 2}
!3 = !{i32 7, !"uwtable", i32 1}
!4 = !{!"clang version 13.0.0"}
!5 = !{!6, !6, i64 0}
!6 = !{!"omnipotent char", !7, i64 0}
!7 = !{!"Simple C/C++ TBAA"}
!8 = distinct !{!8, !9}
!9 = !{!"llvm.loop.mustprogress"}
!10 = distinct !{!10, !9}
